target datalayout = "e-m:e-p270:32:32-p271:32:32-p272:64:64-i64:64-i128:128-f80:128-n8:16:32:64-S128"
target triple = "x86_64-unknown-linux-gnu"

%"class.std::__shared_count" = type { ptr }
%"class.std::shared_ptr.8" = type { %"class.std::__shared_ptr.9" }
%"class.std::__shared_ptr.9" = type { ptr, %"class.std::__shared_count" }
%"struct.arrow::compute::internal::FixedWidthKeyEncoder" = type <{ %"struct.arrow::compute::internal::KeyEncoder", %"class.std::shared_ptr.8", i32, [4 x i8] }>
%"struct.arrow::compute::internal::KeyEncoder" = type { ptr }

; Function Attrs: mustprogress nounwind uwtable
define void @_ZN5arrow7compute8internal20FixedWidthKeyEncoder9AddLengthERKNS0_9ExecValueElPi(ptr noundef nonnull align 8 dereferenceable(28) %this, ptr noundef nonnull align 8 dereferenceable(136) %0, i64 noundef %batch_length, ptr noundef %lengths) unnamed_addr #2 align 2 {
entry:
  %this.addr = alloca ptr, align 8
  %.addr = alloca ptr, align 8
  %batch_length.addr = alloca i64, align 8
  %lengths.addr = alloca ptr, align 8
  %i = alloca i64, align 8
  store ptr %this, ptr %this.addr, align 8
  store ptr %0, ptr %.addr, align 8
  store i64 %batch_length, ptr %batch_length.addr, align 8
  store ptr %lengths, ptr %lengths.addr, align 8
  %this1 = load ptr, ptr %this.addr, align 8
  store i64 0, ptr %i, align 8
  br label %for.cond

for.cond:                                         ; preds = %for.inc, %entry
  %1 = load i64, ptr %i, align 8
  %2 = load i64, ptr %batch_length.addr, align 8
  %cmp = icmp slt i64 %1, %2
  br i1 %cmp, label %for.body, label %for.end

for.body:                                         ; preds = %for.cond
  %byte_width_ = getelementptr inbounds %"struct.arrow::compute::internal::FixedWidthKeyEncoder", ptr %this1, i32 0, i32 2
  %3 = load i32, ptr %byte_width_, align 8
  %add = add nsw i32 %3, 1
  %4 = load ptr, ptr %lengths.addr, align 8
  %5 = load i64, ptr %i, align 8
  %arrayidx = getelementptr inbounds i32, ptr %4, i64 %5
  %6 = load i32, ptr %arrayidx, align 4
  %add2 = add nsw i32 %6, %add
  store i32 %add2, ptr %arrayidx, align 4
  br label %for.inc

for.inc:                                          ; preds = %for.body
  %7 = load i64, ptr %i, align 8
  %inc = add nsw i64 %7, 1
  store i64 %inc, ptr %i, align 8
  br label %for.cond, !llvm.loop !11

for.end:                                          ; preds = %for.cond
  ret void
}