; Function Attrs: mustprogress nofree norecurse nosync nounwind memory(argmem: readwrite) uwtable
define void @_ZN5arrow7compute8internal20FixedWidthKeyEncoder9AddLengthERKNS0_9ExecValueElPi(ptr nocapture noundef nonnull readonly align 8 dereferenceable(28) %this, ptr nocapture nonnull readnone align 8 %0, i64 noundef %batch_length, ptr nocapture noundef %lengths) unnamed_addr #3 align 2 {
entry:
  %cmp3 = icmp sgt i64 %batch_length, 0
  br i1 %cmp3, label %for.body.lr.ph, label %for.end

for.body.lr.ph:                                   ; preds = %entry
  %byte_width_ = getelementptr inbounds i8, ptr %this, i64 24
  br label %for.body

for.body:                                         ; preds = %for.body.lr.ph, %for.body
  %i.04 = phi i64 [ 0, %for.body.lr.ph ], [ %inc, %for.body ]
  %1 = load i32, ptr %byte_width_, align 8
  %add = add nsw i32 %1, 1
  %arrayidx = getelementptr inbounds i32, ptr %lengths, i64 %i.04
  %2 = load i32, ptr %arrayidx, align 4
  %add2 = add nsw i32 %add, %2
  store i32 %add2, ptr %arrayidx, align 4
  %inc = add nuw nsw i64 %i.04, 1
  %exitcond.not = icmp eq i64 %inc, %batch_length
  br i1 %exitcond.not, label %for.end, label %for.body, !llvm.loop !41

for.end:                                          ; preds = %for.body, %entry
  ret void
}